; ModuleID = '39/2102.c'
source_filename = "39/2102.c"
target datalayout = "e-m:e-p270:32:32-p271:32:32-p272:64:64-i64:64-f80:128-n8:16:32:64-S128"
target triple = "x86_64-pc-linux-gnu"

%struct.student = type { [20 x i8], i32, i32, i8, i8, i32, i32 }

@.str = private unnamed_addr constant [3 x i8] c"%d\00", align 1
@.str.1 = private unnamed_addr constant [18 x i8] c"%s %d %d %c %c %d\00", align 1
@.str.2 = private unnamed_addr constant [10 x i8] c"%s\0A%d\0A%d\0A\00", align 1

; Function Attrs: noinline nounwind uwtable
define dso_local i32 @main() #0 {
  %1 = alloca i32, align 4
  %2 = alloca i32, align 4
  %3 = alloca i32, align 4
  %4 = alloca i32, align 4
  %5 = alloca i32, align 4
  %6 = alloca %struct.student*, align 8
  %7 = alloca %struct.student*, align 8
  store i32 0, i32* %1, align 4
  %8 = call i32 (i8*, ...) @__isoc99_scanf(i8* getelementptr inbounds ([3 x i8], [3 x i8]* @.str, i64 0, i64 0), i32* %2)
  %9 = load i32, i32* %2, align 4
  %10 = sext i32 %9 to i64
  %11 = mul i64 40, %10
  %12 = call noalias i8* @malloc(i64 %11) #3
  %13 = bitcast i8* %12 to %struct.student*
  store %struct.student* %13, %struct.student** %6, align 8
  %14 = load %struct.student*, %struct.student** %6, align 8
  store %struct.student* %14, %struct.student** %7, align 8
  store i32 0, i32* %3, align 4
  br label %15

15:                                               ; preds = %34, %0
  %16 = load i32, i32* %3, align 4
  %17 = load i32, i32* %2, align 4
  %18 = icmp slt i32 %16, %17
  br i1 %18, label %19, label %39

19:                                               ; preds = %15
  %20 = load %struct.student*, %struct.student** %7, align 8
  %21 = getelementptr inbounds %struct.student, %struct.student* %20, i32 0, i32 0
  %22 = getelementptr inbounds [20 x i8], [20 x i8]* %21, i64 0, i64 0
  %23 = load %struct.student*, %struct.student** %7, align 8
  %24 = getelementptr inbounds %struct.student, %struct.student* %23, i32 0, i32 1
  %25 = load %struct.student*, %struct.student** %7, align 8
  %26 = getelementptr inbounds %struct.student, %struct.student* %25, i32 0, i32 2
  %27 = load %struct.student*, %struct.student** %7, align 8
  %28 = getelementptr inbounds %struct.student, %struct.student* %27, i32 0, i32 3
  %29 = load %struct.student*, %struct.student** %7, align 8
  %30 = getelementptr inbounds %struct.student, %struct.student* %29, i32 0, i32 4
  %31 = load %struct.student*, %struct.student** %7, align 8
  %32 = getelementptr inbounds %struct.student, %struct.student* %31, i32 0, i32 5
  %33 = call i32 (i8*, ...) @__isoc99_scanf(i8* getelementptr inbounds ([18 x i8], [18 x i8]* @.str.1, i64 0, i64 0), i8* %22, i32* %24, i32* %26, i8* %28, i8* %30, i32* %32)
  br label %34

34:                                               ; preds = %19
  %35 = load i32, i32* %3, align 4
  %36 = add nsw i32 %35, 1
  store i32 %36, i32* %3, align 4
  %37 = load %struct.student*, %struct.student** %7, align 8
  %38 = getelementptr inbounds %struct.student, %struct.student* %37, i32 1
  store %struct.student* %38, %struct.student** %7, align 8
  br label %15

39:                                               ; preds = %15
  %40 = load %struct.student*, %struct.student** %6, align 8
  store %struct.student* %40, %struct.student** %7, align 8
  store i32 0, i32* %3, align 4
  br label %41

41:                                               ; preds = %120, %39
  %42 = load i32, i32* %3, align 4
  %43 = load i32, i32* %2, align 4
  %44 = icmp slt i32 %42, %43
  br i1 %44, label %45, label %125

45:                                               ; preds = %41
  %46 = load %struct.student*, %struct.student** %7, align 8
  %47 = getelementptr inbounds %struct.student, %struct.student* %46, i32 0, i32 6
  store i32 0, i32* %47, align 4
  %48 = load %struct.student*, %struct.student** %7, align 8
  %49 = getelementptr inbounds %struct.student, %struct.student* %48, i32 0, i32 1
  %50 = load i32, i32* %49, align 4
  %51 = icmp sgt i32 %50, 80
  br i1 %51, label %52, label %62

52:                                               ; preds = %45
  %53 = load %struct.student*, %struct.student** %7, align 8
  %54 = getelementptr inbounds %struct.student, %struct.student* %53, i32 0, i32 5
  %55 = load i32, i32* %54, align 4
  %56 = icmp sgt i32 %55, 0
  br i1 %56, label %57, label %62

57:                                               ; preds = %52
  %58 = load %struct.student*, %struct.student** %7, align 8
  %59 = getelementptr inbounds %struct.student, %struct.student* %58, i32 0, i32 6
  %60 = load i32, i32* %59, align 4
  %61 = add nsw i32 %60, 8000
  store i32 %61, i32* %59, align 4
  br label %62

62:                                               ; preds = %57, %52, %45
  %63 = load %struct.student*, %struct.student** %7, align 8
  %64 = getelementptr inbounds %struct.student, %struct.student* %63, i32 0, i32 1
  %65 = load i32, i32* %64, align 4
  %66 = icmp sgt i32 %65, 85
  br i1 %66, label %67, label %77

67:                                               ; preds = %62
  %68 = load %struct.student*, %struct.student** %7, align 8
  %69 = getelementptr inbounds %struct.student, %struct.student* %68, i32 0, i32 2
  %70 = load i32, i32* %69, align 4
  %71 = icmp sgt i32 %70, 80
  br i1 %71, label %72, label %77

72:                                               ; preds = %67
  %73 = load %struct.student*, %struct.student** %7, align 8
  %74 = getelementptr inbounds %struct.student, %struct.student* %73, i32 0, i32 6
  %75 = load i32, i32* %74, align 4
  %76 = add nsw i32 %75, 4000
  store i32 %76, i32* %74, align 4
  br label %77

77:                                               ; preds = %72, %67, %62
  %78 = load %struct.student*, %struct.student** %7, align 8
  %79 = getelementptr inbounds %struct.student, %struct.student* %78, i32 0, i32 1
  %80 = load i32, i32* %79, align 4
  %81 = icmp sgt i32 %80, 90
  br i1 %81, label %82, label %87

82:                                               ; preds = %77
  %83 = load %struct.student*, %struct.student** %7, align 8
  %84 = getelementptr inbounds %struct.student, %struct.student* %83, i32 0, i32 6
  %85 = load i32, i32* %84, align 4
  %86 = add nsw i32 %85, 2000
  store i32 %86, i32* %84, align 4
  br label %87

87:                                               ; preds = %82, %77
  %88 = load %struct.student*, %struct.student** %7, align 8
  %89 = getelementptr inbounds %struct.student, %struct.student* %88, i32 0, i32 1
  %90 = load i32, i32* %89, align 4
  %91 = icmp sgt i32 %90, 85
  br i1 %91, label %92, label %103

92:                                               ; preds = %87
  %93 = load %struct.student*, %struct.student** %7, align 8
  %94 = getelementptr inbounds %struct.student, %struct.student* %93, i32 0, i32 4
  %95 = load i8, i8* %94, align 1
  %96 = sext i8 %95 to i32
  %97 = icmp eq i32 %96, 89
  br i1 %97, label %98, label %103

98:                                               ; preds = %92
  %99 = load %struct.student*, %struct.student** %7, align 8
  %100 = getelementptr inbounds %struct.student, %struct.student* %99, i32 0, i32 6
  %101 = load i32, i32* %100, align 4
  %102 = add nsw i32 %101, 1000
  store i32 %102, i32* %100, align 4
  br label %103

103:                                              ; preds = %98, %92, %87
  %104 = load %struct.student*, %struct.student** %7, align 8
  %105 = getelementptr inbounds %struct.student, %struct.student* %104, i32 0, i32 2
  %106 = load i32, i32* %105, align 4
  %107 = icmp sgt i32 %106, 80
  br i1 %107, label %108, label %119

108:                                              ; preds = %103
  %109 = load %struct.student*, %struct.student** %7, align 8
  %110 = getelementptr inbounds %struct.student, %struct.student* %109, i32 0, i32 3
  %111 = load i8, i8* %110, align 4
  %112 = sext i8 %111 to i32
  %113 = icmp eq i32 %112, 89
  br i1 %113, label %114, label %119

114:                                              ; preds = %108
  %115 = load %struct.student*, %struct.student** %7, align 8
  %116 = getelementptr inbounds %struct.student, %struct.student* %115, i32 0, i32 6
  %117 = load i32, i32* %116, align 4
  %118 = add nsw i32 %117, 850
  store i32 %118, i32* %116, align 4
  br label %119

119:                                              ; preds = %114, %108, %103
  br label %120

120:                                              ; preds = %119
  %121 = load i32, i32* %3, align 4
  %122 = add nsw i32 %121, 1
  store i32 %122, i32* %3, align 4
  %123 = load %struct.student*, %struct.student** %7, align 8
  %124 = getelementptr inbounds %struct.student, %struct.student* %123, i32 1
  store %struct.student* %124, %struct.student** %7, align 8
  br label %41

125:                                              ; preds = %41
  store i32 0, i32* %5, align 4
  %126 = load %struct.student*, %struct.student** %6, align 8
  store %struct.student* %126, %struct.student** %7, align 8
  store i32 0, i32* %3, align 4
  br label %127

127:                                              ; preds = %137, %125
  %128 = load i32, i32* %3, align 4
  %129 = load i32, i32* %2, align 4
  %130 = icmp slt i32 %128, %129
  br i1 %130, label %131, label %142

131:                                              ; preds = %127
  %132 = load %struct.student*, %struct.student** %7, align 8
  %133 = getelementptr inbounds %struct.student, %struct.student* %132, i32 0, i32 6
  %134 = load i32, i32* %133, align 4
  %135 = load i32, i32* %5, align 4
  %136 = add nsw i32 %135, %134
  store i32 %136, i32* %5, align 4
  br label %137

137:                                              ; preds = %131
  %138 = load i32, i32* %3, align 4
  %139 = add nsw i32 %138, 1
  store i32 %139, i32* %3, align 4
  %140 = load %struct.student*, %struct.student** %7, align 8
  %141 = getelementptr inbounds %struct.student, %struct.student* %140, i32 1
  store %struct.student* %141, %struct.student** %7, align 8
  br label %127

142:                                              ; preds = %127
  store i32 0, i32* %4, align 4
  store i32 0, i32* %3, align 4
  br label %143

143:                                              ; preds = %164, %142
  %144 = load i32, i32* %3, align 4
  %145 = load i32, i32* %2, align 4
  %146 = icmp slt i32 %144, %145
  br i1 %146, label %147, label %167

147:                                              ; preds = %143
  %148 = load %struct.student*, %struct.student** %6, align 8
  %149 = load i32, i32* %3, align 4
  %150 = sext i32 %149 to i64
  %151 = getelementptr inbounds %struct.student, %struct.student* %148, i64 %150
  %152 = getelementptr inbounds %struct.student, %struct.student* %151, i32 0, i32 6
  %153 = load i32, i32* %152, align 4
  %154 = load %struct.student*, %struct.student** %6, align 8
  %155 = load i32, i32* %4, align 4
  %156 = sext i32 %155 to i64
  %157 = getelementptr inbounds %struct.student, %struct.student* %154, i64 %156
  %158 = getelementptr inbounds %struct.student, %struct.student* %157, i32 0, i32 6
  %159 = load i32, i32* %158, align 4
  %160 = icmp sgt i32 %153, %159
  br i1 %160, label %161, label %163

161:                                              ; preds = %147
  %162 = load i32, i32* %3, align 4
  store i32 %162, i32* %4, align 4
  br label %163

163:                                              ; preds = %161, %147
  br label %164

164:                                              ; preds = %163
  %165 = load i32, i32* %3, align 4
  %166 = add nsw i32 %165, 1
  store i32 %166, i32* %3, align 4
  br label %143

167:                                              ; preds = %143
  %168 = load %struct.student*, %struct.student** %6, align 8
  %169 = load i32, i32* %4, align 4
  %170 = sext i32 %169 to i64
  %171 = getelementptr inbounds %struct.student, %struct.student* %168, i64 %170
  %172 = getelementptr inbounds %struct.student, %struct.student* %171, i32 0, i32 0
  %173 = getelementptr inbounds [20 x i8], [20 x i8]* %172, i64 0, i64 0
  %174 = load %struct.student*, %struct.student** %6, align 8
  %175 = load i32, i32* %4, align 4
  %176 = sext i32 %175 to i64
  %177 = getelementptr inbounds %struct.student, %struct.student* %174, i64 %176
  %178 = getelementptr inbounds %struct.student, %struct.student* %177, i32 0, i32 6
  %179 = load i32, i32* %178, align 4
  %180 = load i32, i32* %5, align 4
  %181 = call i32 (i8*, ...) @printf(i8* getelementptr inbounds ([10 x i8], [10 x i8]* @.str.2, i64 0, i64 0), i8* %173, i32 %179, i32 %180)
  %182 = load %struct.student*, %struct.student** %6, align 8
  %183 = bitcast %struct.student* %182 to i8*
  call void @free(i8* %183) #3
  ret i32 0
}

declare dso_local i32 @__isoc99_scanf(i8*, ...) #1

; Function Attrs: nounwind
declare dso_local noalias i8* @malloc(i64) #2

declare dso_local i32 @printf(i8*, ...) #1

; Function Attrs: nounwind
declare dso_local void @free(i8*) #2


!llvm.module.flags = !{!0}
!llvm.ident = !{!1}

!0 = !{i32 1, !"wchar_size", i32 4}
!1 = !{!"clang version 10.0.0-4ubuntu1 "}
